target datalayout = "e-m:e-p270:32:32-p271:32:32-p272:64:64-i64:64-i128:128-f80:128-n8:16:32:64-S128"
target triple = "x86_64-pc-linux-gnu"

%"class.llvm::SmallVectorBase" = type { ptr, i32, i32 }
%"class.llvm::Twine" = type <{ %"union.llvm::Twine::Child", %"union.llvm::Twine::Child", i8, i8, [6 x i8] }>
%"union.llvm::Twine::Child" = type { %struct.anon }
%struct.anon = type { ptr, i64 }
%"class.llvm::Value" = type { i8, i8, i16, i32, ptr, ptr }
%"class.llvm::IRBuilderBase" = type { %"class.llvm::SmallVector.7", ptr, %"class.llvm::ilist_iterator_w_bits", ptr, ptr, ptr, ptr, %"class.llvm::FastMathFlags", i8, i8, i8, %"class.llvm::ArrayRef" }
%"class.llvm::SmallVector.7" = type { %"class.llvm::SmallVectorImpl.8", %"struct.llvm::SmallVectorStorage.11" }
%"class.llvm::SmallVectorImpl.8" = type { %"class.llvm::SmallVectorTemplateBase.9" }
%"class.llvm::SmallVectorTemplateBase.9" = type { %"class.llvm::SmallVectorTemplateCommon.10" }
%"class.llvm::SmallVectorTemplateCommon.10" = type { %"class.llvm::SmallVectorBase" }
%"struct.llvm::SmallVectorStorage.11" = type { [32 x i8] }
%"class.llvm::ilist_iterator_w_bits" = type <{ ptr, i8, i8, [6 x i8] }>
%"class.llvm::FastMathFlags" = type { i32 }
%"class.llvm::ArrayRef" = type { ptr, i64 }
%"class.llvm::Type" = type { ptr, i32, i32, ptr }
%"class.llvm::ArrayRef.231" = type { ptr, i64 }
%"class.llvm::VectorType" = type <{ %"class.llvm::Type", ptr, i32, [4 x i8] }>

@.str.41 = private unnamed_addr constant [1 x i8] zeroinitializer, align 1
@.str.935 = private unnamed_addr constant [8 x i8] c"extract\00", align 1

; Function Attrs: mustprogress nounwind uwtable
define linkonce_odr hidden noundef i32 @_ZNK4llvm5Value10getValueIDEv(ptr noundef nonnull align 8 dereferenceable(24) %0) #1 comdat align 2 {
  %2 = alloca ptr, align 8
  store ptr %0, ptr %2, align 8
  %3 = load ptr, ptr %2, align 8
  %4 = getelementptr inbounds nuw %"class.llvm::Value", ptr %3, i32 0, i32 0
  %5 = load i8, ptr %4, align 8
  %6 = zext i8 %5 to i32
  ret i32 %6
}

; Function Attrs: mustprogress nounwind uwtable
define linkonce_odr hidden noundef zeroext i1 @_ZN4llvm8isa_implINS_8ConstantENS_5ValueEvE4doitERKS2_(ptr noundef nonnull align 8 dereferenceable(24) %0) #1 comdat align 2 {
  %2 = alloca ptr, align 8
  store ptr %0, ptr %2, align 8
  %3 = load ptr, ptr %2, align 8
  %4 = call noundef i32 @_ZNK4llvm5Value10getValueIDEv(ptr noundef nonnull align 8 dereferenceable(24) %3)
  %5 = icmp ule i32 %4, 21
  ret i1 %5
}

; Function Attrs: mustprogress nounwind uwtable
define linkonce_odr hidden noundef zeroext i1 @_ZN4llvm11isa_impl_clINS_8ConstantEPKNS_5ValueEE4doitES4_(ptr noundef %0) #1 comdat align 2 {
  %2 = alloca ptr, align 8
  store ptr %0, ptr %2, align 8
  %3 = load ptr, ptr %2, align 8
  %4 = call noundef zeroext i1 @_ZN4llvm8isa_implINS_8ConstantENS_5ValueEvE4doitERKS2_(ptr noundef nonnull align 8 dereferenceable(24) %3)
  ret i1 %4
}

; Function Attrs: mustprogress nounwind uwtable
define linkonce_odr hidden noundef nonnull align 8 dereferenceable(8) ptr @_ZN4llvm13simplify_typeIPNS_5ValueEE18getSimplifiedValueERS2_(ptr noundef nonnull align 8 dereferenceable(8) %0) #1 comdat align 2 {
  %2 = alloca ptr, align 8
  store ptr %0, ptr %2, align 8
  %3 = load ptr, ptr %2, align 8
  ret ptr %3
}

; Function Attrs: mustprogress nounwind uwtable
define linkonce_odr hidden noundef zeroext i1 @_ZN4llvm13isa_impl_wrapINS_8ConstantEPKNS_5ValueES4_E4doitERKS4_(ptr noundef nonnull align 8 dereferenceable(8) %0) #1 comdat align 2 {
  %2 = alloca ptr, align 8
  store ptr %0, ptr %2, align 8
  %3 = load ptr, ptr %2, align 8
  %4 = load ptr, ptr %3, align 8
  %5 = call noundef zeroext i1 @_ZN4llvm11isa_impl_clINS_8ConstantEPKNS_5ValueEE4doitES4_(ptr noundef %4)
  ret i1 %5
}

; Function Attrs: mustprogress nounwind uwtable
define linkonce_odr hidden noundef ptr @_ZN4llvm13simplify_typeIKPNS_5ValueEE18getSimplifiedValueERS3_(ptr noundef nonnull align 8 dereferenceable(8) %0) #1 comdat align 2 {
  %2 = alloca ptr, align 8
  store ptr %0, ptr %2, align 8
  %3 = load ptr, ptr %2, align 8
  %4 = call noundef nonnull align 8 dereferenceable(8) ptr @_ZN4llvm13simplify_typeIPNS_5ValueEE18getSimplifiedValueERS2_(ptr noundef nonnull align 8 dereferenceable(8) %3)
  %5 = load ptr, ptr %4, align 8
  ret ptr %5
}

; Function Attrs: mustprogress nounwind uwtable
define linkonce_odr hidden noundef ptr @_ZN4llvm16cast_convert_valINS_11IntegerTypeEPNS_4TypeES3_E4doitEPKS2_(ptr noundef %0) #1 comdat align 2 {
  %2 = alloca ptr, align 8
  store ptr %0, ptr %2, align 8
  %3 = load ptr, ptr %2, align 8
  ret ptr %3
}

; Function Attrs: mustprogress nounwind uwtable
define linkonce_odr hidden noundef ptr @_ZN4llvm16cast_convert_valINS_8ConstantEPNS_5ValueES3_E4doitEPKS2_(ptr noundef %0) #1 comdat align 2 {
  %2 = alloca ptr, align 8
  store ptr %0, ptr %2, align 8
  %3 = load ptr, ptr %2, align 8
  ret ptr %3
}

; Function Attrs: mustprogress nounwind uwtable
define linkonce_odr hidden noundef zeroext i1 @_ZN4llvm13isa_impl_wrapINS_8ConstantEKPNS_5ValueEPKS2_E4doitERS4_(ptr noundef nonnull align 8 dereferenceable(8) %0) #1 comdat align 2 {
  %2 = alloca ptr, align 8
  %3 = alloca ptr, align 8
  store ptr %0, ptr %2, align 8
  %4 = load ptr, ptr %2, align 8
  %5 = call noundef ptr @_ZN4llvm13simplify_typeIKPNS_5ValueEE18getSimplifiedValueERS3_(ptr noundef nonnull align 8 dereferenceable(8) %4)
  store ptr %5, ptr %3, align 8
  %6 = call noundef zeroext i1 @_ZN4llvm13isa_impl_wrapINS_8ConstantEPKNS_5ValueES4_E4doitERKS4_(ptr noundef nonnull align 8 dereferenceable(8) %3)
  ret i1 %6
}

; Function Attrs: mustprogress nounwind uwtable
define linkonce_odr hidden noundef i32 @_ZNK4llvm4Type15getSubclassDataEv(ptr noundef nonnull align 8 dereferenceable(24) %0) #1 comdat align 2 {
  %2 = alloca ptr, align 8
  store ptr %0, ptr %2, align 8
  %3 = load ptr, ptr %2, align 8
  %4 = getelementptr inbounds nuw %"class.llvm::Type", ptr %3, i32 0, i32 1
  %5 = load i32, ptr %4, align 8
  %6 = lshr i32 %5, 8
  ret i32 %6
}

; Function Attrs: mustprogress nounwind uwtable
define linkonce_odr hidden noundef ptr @_ZN4llvm8CastInfoINS_11IntegerTypeEPNS_4TypeEvE6doCastERKS3_(ptr noundef nonnull align 8 dereferenceable(8) %0) #1 comdat align 2 {
  %2 = alloca ptr, align 8
  store ptr %0, ptr %2, align 8
  %3 = load ptr, ptr %2, align 8
  %4 = load ptr, ptr %3, align 8
  %5 = call noundef ptr @_ZN4llvm16cast_convert_valINS_11IntegerTypeEPNS_4TypeES3_E4doitEPKS2_(ptr noundef %4)
  ret ptr %5
}

; Function Attrs: mustprogress nounwind uwtable
define linkonce_odr hidden noundef ptr @_ZN4llvm16cast_convert_valINS_15FixedVectorTypeEPNS_4TypeES3_E4doitEPKS2_(ptr noundef %0) #1 comdat align 2 {
  %2 = alloca ptr, align 8
  store ptr %0, ptr %2, align 8
  %3 = load ptr, ptr %2, align 8
  ret ptr %3
}

; Function Attrs: mustprogress nounwind uwtable
define linkonce_odr hidden noundef ptr @_ZN4llvm8CastInfoINS_8ConstantEPNS_5ValueEvE6doCastERKS3_(ptr noundef nonnull align 8 dereferenceable(8) %0) #1 comdat align 2 {
  %2 = alloca ptr, align 8
  store ptr %0, ptr %2, align 8
  %3 = load ptr, ptr %2, align 8
  %4 = load ptr, ptr %3, align 8
  %5 = call noundef ptr @_ZN4llvm16cast_convert_valINS_8ConstantEPNS_5ValueES3_E4doitEPKS2_(ptr noundef %4)
  ret ptr %5
}

; Function Attrs: mustprogress nounwind uwtable
define linkonce_odr hidden noundef ptr @_ZN4llvm8CastInfoINS_8ConstantEPNS_5ValueEvE10castFailedEv() #1 comdat align 2 {
  ret ptr null
}

; Function Attrs: mustprogress nounwind uwtable
define linkonce_odr hidden noundef zeroext i1 @_ZN4llvm14CastIsPossibleINS_8ConstantEPNS_5ValueEvE10isPossibleERKS3_(ptr noundef nonnull align 8 dereferenceable(8) %0) #1 comdat align 2 {
  %2 = alloca ptr, align 8
  store ptr %0, ptr %2, align 8
  %3 = load ptr, ptr %2, align 8
  %4 = call noundef zeroext i1 @_ZN4llvm13isa_impl_wrapINS_8ConstantEKPNS_5ValueEPKS2_E4doitERS4_(ptr noundef nonnull align 8 dereferenceable(8) %3)
  ret i1 %4
}

; Function Attrs: mustprogress nounwind uwtable
define linkonce_odr hidden void @_ZN4llvm8ArrayRefIiEC2EPKim(ptr noundef nonnull align 8 dereferenceable(16) %0, ptr noundef %1, i64 noundef %2) unnamed_addr #1 comdat align 2 {
  %4 = alloca ptr, align 8
  %5 = alloca ptr, align 8
  %6 = alloca i64, align 8
  store ptr %0, ptr %4, align 8
  store ptr %1, ptr %5, align 8
  store i64 %2, ptr %6, align 8
  %7 = load ptr, ptr %4, align 8
  %8 = getelementptr inbounds nuw %"class.llvm::ArrayRef.231", ptr %7, i32 0, i32 0
  %9 = load ptr, ptr %5, align 8
  store ptr %9, ptr %8, align 8
  %10 = getelementptr inbounds nuw %"class.llvm::ArrayRef.231", ptr %7, i32 0, i32 1
  %11 = load i64, ptr %6, align 8
  store i64 %11, ptr %10, align 8
  ret void
}

; Function Attrs: mustprogress nounwind uwtable
define linkonce_odr hidden noundef ptr @_ZN4llvm13IRBuilderBase13CreateBitCastEPNS_5ValueEPNS_4TypeERKNS_5TwineE(ptr noundef nonnull align 8 dereferenceable(128) %0, ptr noundef %1, ptr noundef %2, ptr noundef nonnull align 8 dereferenceable(34) %3) #1 comdat align 2 {
  %5 = alloca ptr, align 8
  %6 = alloca ptr, align 8
  %7 = alloca ptr, align 8
  %8 = alloca ptr, align 8
  store ptr %0, ptr %5, align 8
  store ptr %1, ptr %6, align 8
  store ptr %2, ptr %7, align 8
  store ptr %3, ptr %8, align 8
  %9 = load ptr, ptr %5, align 8
  %10 = load ptr, ptr %6, align 8
  %11 = load ptr, ptr %7, align 8
  %12 = load ptr, ptr %8, align 8
  %13 = call noundef ptr @_ZN4llvm13IRBuilderBase10CreateCastENS_11Instruction7CastOpsEPNS_5ValueEPNS_4TypeERKNS_5TwineE(ptr noundef nonnull align 8 dereferenceable(128) %9, i32 noundef 49, ptr noundef %10, ptr noundef %11, ptr noundef nonnull align 8 dereferenceable(34) %12)
  ret ptr %13
}

; Function Attrs: mustprogress nounwind uwtable
define linkonce_odr hidden noundef i32 @_ZNK4llvm11IntegerType11getBitWidthEv(ptr noundef nonnull align 8 dereferenceable(24) %0) #1 comdat align 2 {
  %2 = alloca ptr, align 8
  store ptr %0, ptr %2, align 8
  %3 = load ptr, ptr %2, align 8
  %4 = call noundef i32 @_ZNK4llvm4Type15getSubclassDataEv(ptr noundef nonnull align 8 dereferenceable(24) %3)
  ret i32 %4
}

; Function Attrs: mustprogress nounwind uwtable
define linkonce_odr hidden noundef ptr @_ZN4llvm4castINS_11IntegerTypeENS_4TypeEEEDcPT0_(ptr noundef %0) #1 comdat {
  %2 = alloca ptr, align 8
  store ptr %0, ptr %2, align 8
  %3 = call noundef ptr @_ZN4llvm8CastInfoINS_11IntegerTypeEPNS_4TypeEvE6doCastERKS3_(ptr noundef nonnull align 8 dereferenceable(8) %2)
  ret ptr %3
}

; Function Attrs: mustprogress nounwind uwtable
define linkonce_odr hidden noundef ptr @_ZN4llvm13IRBuilderBase9getInt1TyEv(ptr noundef nonnull align 8 dereferenceable(128) %0) #1 comdat align 2 {
  %2 = alloca ptr, align 8
  store ptr %0, ptr %2, align 8
  %3 = load ptr, ptr %2, align 8
  %4 = getelementptr inbounds nuw %"class.llvm::IRBuilderBase", ptr %3, i32 0, i32 3
  %5 = load ptr, ptr %4, align 8
  %6 = call noundef ptr @_ZN4llvm4Type9getInt1TyERNS_11LLVMContextE(ptr noundef nonnull align 8 dereferenceable(8) %5)
  ret ptr %6
}

; Function Attrs: mustprogress nounwind uwtable
define linkonce_odr hidden noundef ptr @_ZN4llvm8CastInfoINS_15FixedVectorTypeEPNS_4TypeEvE6doCastERKS3_(ptr noundef nonnull align 8 dereferenceable(8) %0) #1 comdat align 2 {
  %2 = alloca ptr, align 8
  store ptr %0, ptr %2, align 8
  %3 = load ptr, ptr %2, align 8
  %4 = load ptr, ptr %3, align 8
  %5 = call noundef ptr @_ZN4llvm16cast_convert_valINS_15FixedVectorTypeEPNS_4TypeES3_E4doitEPKS2_(ptr noundef %4)
  ret ptr %5
}

; Function Attrs: mustprogress nounwind uwtable
define linkonce_odr hidden noundef ptr @_ZN4llvm8CastInfoINS_8ConstantEPNS_5ValueEvE16doCastIfPossibleERKS3_(ptr noundef nonnull align 8 dereferenceable(8) %0) #1 comdat align 2 {
  %2 = alloca ptr, align 8
  %3 = alloca ptr, align 8
  store ptr %0, ptr %3, align 8
  %4 = load ptr, ptr %3, align 8
  %5 = call noundef zeroext i1 @_ZN4llvm14CastIsPossibleINS_8ConstantEPNS_5ValueEvE10isPossibleERKS3_(ptr noundef nonnull align 8 dereferenceable(8) %4)
  br i1 %5, label %8, label %6

6:                                                ; preds = %1
  %7 = call noundef ptr @_ZN4llvm8CastInfoINS_8ConstantEPNS_5ValueEvE10castFailedEv()
  store ptr %7, ptr %2, align 8
  br label %11

8:                                                ; preds = %1
  %9 = load ptr, ptr %3, align 8
  %10 = call noundef ptr @_ZN4llvm8CastInfoINS_8ConstantEPNS_5ValueEvE6doCastERKS3_(ptr noundef nonnull align 8 dereferenceable(8) %9)
  store ptr %10, ptr %2, align 8
  br label %11

11:                                               ; preds = %8, %6
  %12 = load ptr, ptr %2, align 8
  ret ptr %12
}

; Function Attrs: mustprogress nounwind uwtable
define linkonce_odr hidden void @_ZN4llvm5TwineC2EPKc(ptr noundef nonnull align 8 dereferenceable(34) %0, ptr noundef %1) unnamed_addr #1 comdat align 2 {
  %3 = alloca ptr, align 8
  %4 = alloca ptr, align 8
  store ptr %0, ptr %3, align 8
  store ptr %1, ptr %4, align 8
  %5 = load ptr, ptr %3, align 8
  %6 = getelementptr inbounds nuw %"class.llvm::Twine", ptr %5, i32 0, i32 2
  store i8 1, ptr %6, align 8
  %7 = getelementptr inbounds nuw %"class.llvm::Twine", ptr %5, i32 0, i32 3
  store i8 1, ptr %7, align 1
  %8 = load ptr, ptr %4, align 8
  %9 = getelementptr inbounds i8, ptr %8, i64 0
  %10 = load i8, ptr %9, align 1
  %11 = sext i8 %10 to i32
  %12 = icmp ne i32 %11, 0
  br i1 %12, label %13, label %17

13:                                               ; preds = %2
  %14 = load ptr, ptr %4, align 8
  %15 = getelementptr inbounds nuw %"class.llvm::Twine", ptr %5, i32 0, i32 0
  store ptr %14, ptr %15, align 8
  %16 = getelementptr inbounds nuw %"class.llvm::Twine", ptr %5, i32 0, i32 2
  store i8 3, ptr %16, align 8
  br label %19

17:                                               ; preds = %2
  %18 = getelementptr inbounds nuw %"class.llvm::Twine", ptr %5, i32 0, i32 2
  store i8 1, ptr %18, align 8
  br label %19

19:                                               ; preds = %17, %13
  ret void
}

; Function Attrs: mustprogress nounwind uwtable
define internal noundef ptr @_ZL13getX86MaskVecRN4llvm9IRBuilderINS_14ConstantFolderENS_24IRBuilderDefaultInserterEEEPNS_5ValueEj(ptr noundef nonnull align 8 dereferenceable(144) %0, ptr noundef %1, i32 noundef %2) #1 {
  %4 = alloca ptr, align 8
  %5 = alloca ptr, align 8
  %6 = alloca i32, align 4
  %7 = alloca ptr, align 8
  %8 = alloca %"class.llvm::Twine", align 8
  %9 = alloca [4 x i32], align 16
  %10 = alloca i32, align 4
  %11 = alloca %"class.llvm::ArrayRef.231", align 8
  %12 = alloca %"class.llvm::Twine", align 8
  store ptr %0, ptr %4, align 8
  store ptr %1, ptr %5, align 8
  store i32 %2, ptr %6, align 4
  %13 = load ptr, ptr %4, align 8
  %14 = call noundef ptr @_ZN4llvm13IRBuilderBase9getInt1TyEv(ptr noundef nonnull align 8 dereferenceable(128) %13)
  %15 = load ptr, ptr %5, align 8
  %16 = call noundef ptr @_ZNK4llvm5Value7getTypeEv(ptr noundef nonnull align 8 dereferenceable(24) %15)
  %17 = call noundef ptr @_ZN4llvm4castINS_11IntegerTypeENS_4TypeEEEDcPT0_(ptr noundef %16)
  %18 = call noundef i32 @_ZNK4llvm11IntegerType11getBitWidthEv(ptr noundef nonnull align 8 dereferenceable(24) %17)
  %19 = call noundef ptr @_ZN4llvm15FixedVectorType3getEPNS_4TypeEj(ptr noundef %14, i32 noundef %18)
  store ptr %19, ptr %7, align 8
  %20 = load ptr, ptr %4, align 8
  %21 = load ptr, ptr %5, align 8
  %22 = load ptr, ptr %7, align 8
  call void @_ZN4llvm5TwineC2EPKc(ptr noundef nonnull align 8 dereferenceable(34) %8, ptr noundef @.str.41)
  %23 = call noundef ptr @_ZN4llvm13IRBuilderBase13CreateBitCastEPNS_5ValueEPNS_4TypeERKNS_5TwineE(ptr noundef nonnull align 8 dereferenceable(128) %20, ptr noundef %21, ptr noundef %22, ptr noundef nonnull align 8 dereferenceable(34) %8)
  store ptr %23, ptr %5, align 8
  %24 = load i32, ptr %6, align 4
  %25 = icmp ule i32 %24, 4
  br i1 %25, label %26, label %51

26:                                               ; preds = %3
  store i32 0, ptr %10, align 4
  br label %27

27:                                               ; preds = %36, %26
  %28 = load i32, ptr %10, align 4
  %29 = load i32, ptr %6, align 4
  %30 = icmp ne i32 %28, %29
  br i1 %30, label %31, label %39

31:                                               ; preds = %27
  %32 = load i32, ptr %10, align 4
  %33 = load i32, ptr %10, align 4
  %34 = zext i32 %33 to i64
  %35 = getelementptr inbounds [4 x i32], ptr %9, i64 0, i64 %34
  store i32 %32, ptr %35, align 4
  br label %36

36:                                               ; preds = %31
  %37 = load i32, ptr %10, align 4
  %38 = add i32 %37, 1
  store i32 %38, ptr %10, align 4
  br label %27, !llvm.loop !41

39:                                               ; preds = %27
  %40 = load ptr, ptr %4, align 8
  %41 = load ptr, ptr %5, align 8
  %42 = load ptr, ptr %5, align 8
  %43 = getelementptr inbounds [4 x i32], ptr %9, i64 0, i64 0
  %44 = load i32, ptr %6, align 4
  %45 = zext i32 %44 to i64
  call void @_ZN4llvm8ArrayRefIiEC2EPKim(ptr noundef nonnull align 8 dereferenceable(16) %11, ptr noundef %43, i64 noundef %45)
  call void @_ZN4llvm5TwineC2EPKc(ptr noundef nonnull align 8 dereferenceable(34) %12, ptr noundef @.str.935)
  %46 = getelementptr inbounds nuw { ptr, i64 }, ptr %11, i32 0, i32 0
  %47 = load ptr, ptr %46, align 8
  %48 = getelementptr inbounds nuw { ptr, i64 }, ptr %11, i32 0, i32 1
  %49 = load i64, ptr %48, align 8
  %50 = call noundef ptr @_ZN4llvm13IRBuilderBase19CreateShuffleVectorEPNS_5ValueES2_NS_8ArrayRefIiEERKNS_5TwineE(ptr noundef nonnull align 8 dereferenceable(128) %40, ptr noundef %41, ptr noundef %42, ptr %47, i64 %49, ptr noundef nonnull align 8 dereferenceable(34) %12)
  store ptr %50, ptr %5, align 8
  br label %51

51:                                               ; preds = %39, %3
  %52 = load ptr, ptr %5, align 8
  ret ptr %52
}

; Function Attrs: mustprogress nounwind uwtable
define linkonce_odr hidden noundef i32 @_ZNK4llvm15FixedVectorType14getNumElementsEv(ptr noundef nonnull align 8 dereferenceable(36) %0) #1 comdat align 2 {
  %2 = alloca ptr, align 8
  store ptr %0, ptr %2, align 8
  %3 = load ptr, ptr %2, align 8
  %4 = getelementptr inbounds nuw %"class.llvm::VectorType", ptr %3, i32 0, i32 2
  %5 = load i32, ptr %4, align 8
  ret i32 %5
}

; Function Attrs: mustprogress nounwind uwtable
define linkonce_odr hidden noundef ptr @_ZN4llvm4castINS_15FixedVectorTypeENS_4TypeEEEDcPT0_(ptr noundef %0) #1 comdat {
  %2 = alloca ptr, align 8
  store ptr %0, ptr %2, align 8
  %3 = call noundef ptr @_ZN4llvm8CastInfoINS_15FixedVectorTypeEPNS_4TypeEvE6doCastERKS3_(ptr noundef nonnull align 8 dereferenceable(8) %2)
  ret ptr %3
}

; Function Attrs: mustprogress nounwind uwtable
define linkonce_odr hidden noundef ptr @_ZNK4llvm5Value7getTypeEv(ptr noundef nonnull align 8 dereferenceable(24) %0) #1 comdat align 2 {
  %2 = alloca ptr, align 8
  store ptr %0, ptr %2, align 8
  %3 = load ptr, ptr %2, align 8
  %4 = getelementptr inbounds nuw %"class.llvm::Value", ptr %3, i32 0, i32 4
  %5 = load ptr, ptr %4, align 8
  ret ptr %5
}

; Function Attrs: mustprogress nounwind uwtable
define linkonce_odr hidden noundef ptr @_ZN4llvm8dyn_castINS_8ConstantENS_5ValueEEEDcPT0_(ptr noundef %0) #1 comdat {
  %2 = alloca ptr, align 8
  store ptr %0, ptr %2, align 8
  %3 = call noundef ptr @_ZN4llvm8CastInfoINS_8ConstantEPNS_5ValueEvE16doCastIfPossibleERKS3_(ptr noundef nonnull align 8 dereferenceable(8) %2)
  ret ptr %3
}

; Function Attrs: mustprogress nounwind uwtable
define internal noundef ptr @_ZL13emitX86SelectRN4llvm9IRBuilderINS_14ConstantFolderENS_24IRBuilderDefaultInserterEEEPNS_5ValueES6_S6_(ptr noundef nonnull align 8 dereferenceable(144) %0, ptr noundef %1, ptr noundef %2, ptr noundef %3) #1 {
  %5 = alloca ptr, align 8
  %6 = alloca ptr, align 8
  %7 = alloca ptr, align 8
  %8 = alloca ptr, align 8
  %9 = alloca ptr, align 8
  %10 = alloca ptr, align 8
  %11 = alloca %"class.llvm::Twine", align 8
  store ptr %0, ptr %6, align 8
  store ptr %1, ptr %7, align 8
  store ptr %2, ptr %8, align 8
  store ptr %3, ptr %9, align 8
  %12 = load ptr, ptr %7, align 8
  %13 = call noundef ptr @_ZN4llvm8dyn_castINS_8ConstantENS_5ValueEEEDcPT0_(ptr noundef %12)
  store ptr %13, ptr %10, align 8
  %14 = load ptr, ptr %10, align 8
  %15 = icmp ne ptr %14, null
  br i1 %15, label %16, label %22

16:                                               ; preds = %4
  %17 = load ptr, ptr %10, align 8
  %18 = call noundef zeroext i1 @_ZNK4llvm8Constant14isAllOnesValueEv(ptr noundef nonnull align 8 dereferenceable(24) %17)
  br i1 %18, label %19, label %21

19:                                               ; preds = %16
  %20 = load ptr, ptr %8, align 8
  store ptr %20, ptr %5, align 8
  br label %35

21:                                               ; preds = %16
  br label %22

22:                                               ; preds = %21, %4
  %23 = load ptr, ptr %6, align 8
  %24 = load ptr, ptr %7, align 8
  %25 = load ptr, ptr %8, align 8
  %26 = call noundef ptr @_ZNK4llvm5Value7getTypeEv(ptr noundef nonnull align 8 dereferenceable(24) %25)
  %27 = call noundef ptr @_ZN4llvm4castINS_15FixedVectorTypeENS_4TypeEEEDcPT0_(ptr noundef %26)
  %28 = call noundef i32 @_ZNK4llvm15FixedVectorType14getNumElementsEv(ptr noundef nonnull align 8 dereferenceable(36) %27)
  %29 = call noundef ptr @_ZL13getX86MaskVecRN4llvm9IRBuilderINS_14ConstantFolderENS_24IRBuilderDefaultInserterEEEPNS_5ValueEj(ptr noundef nonnull align 8 dereferenceable(144) %23, ptr noundef %24, i32 noundef %28)
  store ptr %29, ptr %7, align 8
  %30 = load ptr, ptr %6, align 8
  %31 = load ptr, ptr %7, align 8
  %32 = load ptr, ptr %8, align 8
  %33 = load ptr, ptr %9, align 8
  call void @_ZN4llvm5TwineC2EPKc(ptr noundef nonnull align 8 dereferenceable(34) %11, ptr noundef @.str.41)
  %34 = call noundef ptr @_ZN4llvm13IRBuilderBase12CreateSelectEPNS_5ValueES2_S2_RKNS_5TwineEPNS_11InstructionE(ptr noundef nonnull align 8 dereferenceable(128) %30, ptr noundef %31, ptr noundef %32, ptr noundef %33, ptr noundef nonnull align 8 dereferenceable(34) %11, ptr noundef null)
  store ptr %34, ptr %5, align 8
  br label %35

35:                                               ; preds = %22, %19
  %36 = load ptr, ptr %5, align 8
  ret ptr %36
}