; Function Attrs: mustprogress nounwind uwtable
define internal fastcc noundef ptr @_ZL13emitX86SelectRN4llvm9IRBuilderINS_14ConstantFolderENS_24IRBuilderDefaultInserterEEEPNS_5ValueES6_S6_(ptr noundef nonnull align 8 dereferenceable(144) %0, ptr noundef %1, ptr noundef %2, ptr noundef %3) unnamed_addr #0 {
  %5 = alloca %"class.llvm::Twine", align 8
  %6 = alloca [4 x i32], align 16
  %7 = alloca %"class.llvm::Twine", align 8
  %8 = alloca %"class.llvm::Twine", align 8
  %9 = load i8, ptr %1, align 8
  %10 = icmp ugt i8 %9, 21
  br i1 %10, label %13, label %11

11:                                               ; preds = %4
  %12 = tail call noundef zeroext i1 @_ZNK4llvm8Constant14isAllOnesValueEv(ptr noundef nonnull align 8 dereferenceable(24) %1) #20
  br i1 %12, label %38, label %13

13:                                               ; preds = %11, %4
  %14 = getelementptr inbounds nuw i8, ptr %2, i64 8
  %15 = load ptr, ptr %14, align 8
  %16 = getelementptr inbounds nuw i8, ptr %15, i64 32
  %17 = load i32, ptr %16, align 8
  call void @llvm.lifetime.start.p0(i64 40, ptr nonnull %5)
  call void @llvm.lifetime.start.p0(i64 16, ptr nonnull %6)
  call void @llvm.lifetime.start.p0(i64 40, ptr nonnull %7)
  %18 = getelementptr inbounds nuw i8, ptr %0, i64 72
  %19 = load ptr, ptr %18, align 8
  %20 = tail call noundef ptr @_ZN4llvm4Type9getInt1TyERNS_11LLVMContextE(ptr noundef nonnull align 8 dereferenceable(8) %19) #20
  %21 = getelementptr inbounds nuw i8, ptr %1, i64 8
  %22 = load ptr, ptr %21, align 8
  %23 = getelementptr inbounds nuw i8, ptr %22, i64 8
  %24 = load i32, ptr %23, align 8
  %25 = lshr i32 %24, 8
  %26 = tail call noundef ptr @_ZN4llvm15FixedVectorType3getEPNS_4TypeEj(ptr noundef %20, i32 noundef %25) #20
  %27 = getelementptr inbounds nuw i8, ptr %5, i64 32
  store i16 257, ptr %27, align 8
  %28 = call noundef ptr @_ZN4llvm13IRBuilderBase10CreateCastENS_11Instruction7CastOpsEPNS_5ValueEPNS_4TypeERKNS_5TwineE(ptr noundef nonnull align 8 dereferenceable(128) %0, i32 noundef 49, ptr noundef nonnull %1, ptr noundef %26, ptr noundef nonnull align 8 dereferenceable(34) %5)
  %29 = icmp ult i32 %17, 5
  br i1 %29, label %.preheader.i, label %_ZL13getX86MaskVecRN4llvm9IRBuilderINS_14ConstantFolderENS_24IRBuilderDefaultInserterEEEPNS_5ValueEj.exit

.preheader.i:                                     ; preds = %13
  %.not17.i = icmp eq i32 %17, 0
  br i1 %.not17.i, label %._crit_edge.i, label %.lr.ph.preheader.i

.lr.ph.preheader.i:                               ; preds = %.preheader.i
  %30 = zext nneg i32 %17 to i64
  br label %.lr.ph.i

.lr.ph.i:                                         ; preds = %.lr.ph.i, %.lr.ph.preheader.i
  %indvars.iv.i = phi i64 [ 0, %.lr.ph.preheader.i ], [ %indvars.iv.next.i, %.lr.ph.i ]
  %31 = getelementptr inbounds [4 x i32], ptr %6, i64 0, i64 %indvars.iv.i
  %32 = trunc nuw nsw i64 %indvars.iv.i to i32
  store i32 %32, ptr %31, align 4
  %indvars.iv.next.i = add nuw nsw i64 %indvars.iv.i, 1
  %.not.i = icmp eq i64 %indvars.iv.next.i, %30
  br i1 %.not.i, label %._crit_edge.i, label %.lr.ph.i, !llvm.loop !17

._crit_edge.i:                                    ; preds = %.lr.ph.i, %.preheader.i
  %.pre-phi.i = phi i64 [ 0, %.preheader.i ], [ %30, %.lr.ph.i ]
  %33 = getelementptr inbounds nuw i8, ptr %7, i64 32
  %34 = getelementptr inbounds nuw i8, ptr %7, i64 33
  store i8 1, ptr %34, align 1
  store ptr @.str.935, ptr %7, align 8
  store i8 3, ptr %33, align 8
  %35 = call noundef ptr @_ZN4llvm13IRBuilderBase19CreateShuffleVectorEPNS_5ValueES2_NS_8ArrayRefIiEERKNS_5TwineE(ptr noundef nonnull align 8 dereferenceable(128) %0, ptr noundef %28, ptr noundef %28, ptr nonnull %6, i64 %.pre-phi.i, ptr noundef nonnull align 8 dereferenceable(34) %7)
  br label %_ZL13getX86MaskVecRN4llvm9IRBuilderINS_14ConstantFolderENS_24IRBuilderDefaultInserterEEEPNS_5ValueEj.exit

_ZL13getX86MaskVecRN4llvm9IRBuilderINS_14ConstantFolderENS_24IRBuilderDefaultInserterEEEPNS_5ValueEj.exit: ; preds = %13, %._crit_edge.i
  %.015.i = phi ptr [ %35, %._crit_edge.i ], [ %28, %13 ]
  call void @llvm.lifetime.end.p0(i64 40, ptr nonnull %5)
  call void @llvm.lifetime.end.p0(i64 16, ptr nonnull %6)
  call void @llvm.lifetime.end.p0(i64 40, ptr nonnull %7)
  %36 = getelementptr inbounds nuw i8, ptr %8, i64 32
  store i16 257, ptr %36, align 8
  %37 = call noundef ptr @_ZN4llvm13IRBuilderBase12CreateSelectEPNS_5ValueES2_S2_RKNS_5TwineEPNS_11InstructionE(ptr noundef nonnull align 8 dereferenceable(128) %0, ptr noundef %.015.i, ptr noundef nonnull %2, ptr noundef %3, ptr noundef nonnull align 8 dereferenceable(34) %8, ptr noundef null) #20
  br label %38

38:                                               ; preds = %11, %_ZL13getX86MaskVecRN4llvm9IRBuilderINS_14ConstantFolderENS_24IRBuilderDefaultInserterEEEPNS_5ValueEj.exit
  %.0 = phi ptr [ %37, %_ZL13getX86MaskVecRN4llvm9IRBuilderINS_14ConstantFolderENS_24IRBuilderDefaultInserterEEEPNS_5ValueEj.exit ], [ %2, %11 ]
  ret ptr %.0
}